target datalayout = "e-m:e-p270:32:32-p271:32:32-p272:64:64-i64:64-i128:128-f80:128-n8:16:32:64-S128"
target triple = "x86_64-unknown-linux-gnu"

%"class.FLAC::Metadata::SimpleIterator" = type { ptr, ptr }

; Function Attrs: mustprogress sspstrong uwtable
define noundef zeroext i1 @_ZN4FLAC8Metadata14SimpleIterator4initEPKcbb(ptr noundef nonnull align 8 dereferenceable(16) %this, ptr noundef %filename, i1 noundef zeroext %read_only, i1 noundef zeroext %preserve_file_stats) #0 align 2 {
entry:
  %this.addr = alloca ptr, align 8
  %filename.addr = alloca ptr, align 8
  %read_only.addr = alloca i8, align 1
  %preserve_file_stats.addr = alloca i8, align 1
  store ptr %this, ptr %this.addr, align 8
  store ptr %filename, ptr %filename.addr, align 8
  %frombool = zext i1 %read_only to i8
  store i8 %frombool, ptr %read_only.addr, align 1
  %frombool1 = zext i1 %preserve_file_stats to i8
  store i8 %frombool1, ptr %preserve_file_stats.addr, align 1
  %this2 = load ptr, ptr %this.addr, align 8
  %iterator_ = getelementptr inbounds %"class.FLAC::Metadata::SimpleIterator", ptr %this2, i32 0, i32 1
  %0 = load ptr, ptr %iterator_, align 8
  %1 = load ptr, ptr %filename.addr, align 8
  %2 = load i8, ptr %read_only.addr, align 1
  %tobool = trunc i8 %2 to i1
  %conv = zext i1 %tobool to i32
  %3 = load i8, ptr %preserve_file_stats.addr, align 1
  %tobool3 = trunc i8 %3 to i1
  %conv4 = zext i1 %tobool3 to i32
  %call = call i32 @FLAC__metadata_simple_iterator_init(ptr noundef %0, ptr noundef %1, i32 noundef %conv, i32 noundef %conv4)
  %tobool5 = icmp ne i32 %call, 0
  ret i1 %tobool5
}