; Function Attrs: mustprogress sspstrong uwtable
define noundef zeroext i1 @_ZN4FLAC8Metadata14SimpleIterator4initEPKcbb(ptr nocapture noundef nonnull readonly align 8 dereferenceable(16) %this, ptr noundef %filename, i1 noundef zeroext %read_only, i1 noundef zeroext %preserve_file_stats) local_unnamed_addr #0 align 2 {
entry:
  %iterator_ = getelementptr inbounds i8, ptr %this, i64 8
  %0 = load ptr, ptr %iterator_, align 8
  %conv = zext i1 %read_only to i32
  %conv4 = zext i1 %preserve_file_stats to i32
  %call = tail call i32 @FLAC__metadata_simple_iterator_init(ptr noundef %0, ptr noundef %filename, i32 noundef %conv, i32 noundef %conv4)
  %tobool5 = icmp ne i32 %call, 0
  ret i1 %tobool5
}